target datalayout = "e-m:e-p270:32:32-p271:32:32-p272:64:64-i64:64-i128:128-f80:128-n8:16:32:64-S128"
target triple = "x86_64-unknown-linux-gnu"

%class.params_ref = type { ptr }
%class.proto_model = type <{ %class.model_core, %class.plugin_manager, ptr, %class.obj_hashtable, %class.ptr_vector.9, %class.model_evaluator, %class.th_rewriter, i8, [7 x i8] }>
%class.model_core = type { ptr, ptr, i32, [4 x i8], %class.obj_map, %class.obj_map.0, %class.ptr_vector, %class.ptr_vector, %class.ptr_vector }
%class.obj_map = type { %class.core_hashtable }
%class.core_hashtable = type <{ ptr, i32, i32, i32, [4 x i8] }>
%class.obj_map.0 = type { %class.core_hashtable.1 }
%class.core_hashtable.1 = type <{ ptr, i32, i32, i32, [4 x i8] }>
%class.ptr_vector = type { %class.vector }
%class.vector = type { ptr }
%class.plugin_manager = type { %class.ptr_vector.5, %class.ptr_vector.5 }
%class.ptr_vector.5 = type { %class.vector.6 }
%class.vector.6 = type { ptr }
%class.obj_hashtable = type { %class.core_hashtable.base.8, [4 x i8] }
%class.core_hashtable.base.8 = type <{ ptr, i32, i32, i32 }>
%class.ptr_vector.9 = type { %class.vector.10 }
%class.vector.10 = type { ptr }
%class.model_evaluator = type { ptr }
%class.th_rewriter = type { ptr, %class.params_ref }
%class.symbol = type { ptr }
%class.decl = type { %class.ast, %class.symbol, ptr }
%class.ast = type { i32, i24, i32, i32 }
%class.decl_info = type <{ i32, i32, %class.vector.86, i8, [7 x i8] }>
%class.vector.86 = type { ptr }

; Function Attrs: mustprogress nounwind uwtable
define linkonce_odr hidden noundef i32 @_ZNK6vectorIP13value_factoryLb0EjE4sizeEv(ptr noundef nonnull align 8 dereferenceable(8) %this) #5 comdat align 2 {
entry:
  %retval = alloca i32, align 4
  %this.addr = alloca ptr, align 8
  store ptr %this, ptr %this.addr, align 8
  %this1 = load ptr, ptr %this.addr, align 8
  %m_data = getelementptr inbounds %class.vector.6, ptr %this1, i32 0, i32 0
  %0 = load ptr, ptr %m_data, align 8
  %cmp = icmp eq ptr %0, null
  br i1 %cmp, label %if.then, label %if.end

if.then:                                          ; preds = %entry
  store i32 0, ptr %retval, align 4
  br label %return

if.end:                                           ; preds = %entry
  %m_data2 = getelementptr inbounds %class.vector.6, ptr %this1, i32 0, i32 0
  %1 = load ptr, ptr %m_data2, align 8
  %arrayidx = getelementptr inbounds i32, ptr %1, i64 -1
  %2 = load i32, ptr %arrayidx, align 4
  store i32 %2, ptr %retval, align 4
  br label %return

return:                                           ; preds = %if.end, %if.then
  %3 = load i32, ptr %retval, align 4
  ret i32 %3
}

; Function Attrs: mustprogress nounwind uwtable
define linkonce_odr hidden noundef nonnull align 8 dereferenceable(8) ptr @_ZNK6vectorIP13value_factoryLb0EjE3getEjRKS1_(ptr noundef nonnull align 8 dereferenceable(8) %this, i32 noundef %idx, ptr noundef nonnull align 8 dereferenceable(8) %d) #5 comdat align 2 {
entry:
  %retval = alloca ptr, align 8
  %this.addr = alloca ptr, align 8
  %idx.addr = alloca i32, align 4
  %d.addr = alloca ptr, align 8
  store ptr %this, ptr %this.addr, align 8
  store i32 %idx, ptr %idx.addr, align 4
  store ptr %d, ptr %d.addr, align 8
  %this1 = load ptr, ptr %this.addr, align 8
  %0 = load i32, ptr %idx.addr, align 4
  %call = call noundef i32 @_ZNK6vectorIP13value_factoryLb0EjE4sizeEv(ptr noundef nonnull align 8 dereferenceable(8) %this1)
  %cmp = icmp uge i32 %0, %call
  br i1 %cmp, label %if.then, label %if.end

if.then:                                          ; preds = %entry
  %1 = load ptr, ptr %d.addr, align 8
  store ptr %1, ptr %retval, align 8
  br label %return

if.end:                                           ; preds = %entry
  %m_data = getelementptr inbounds %class.vector.6, ptr %this1, i32 0, i32 0
  %2 = load ptr, ptr %m_data, align 8
  %3 = load i32, ptr %idx.addr, align 4
  %idxprom = zext i32 %3 to i64
  %arrayidx = getelementptr inbounds ptr, ptr %2, i64 %idxprom
  store ptr %arrayidx, ptr %retval, align 8
  br label %return

return:                                           ; preds = %if.end, %if.then
  %4 = load ptr, ptr %retval, align 8
  ret ptr %4
}

; Function Attrs: mustprogress uwtable
define linkonce_odr hidden noundef ptr @_ZNK14plugin_managerI13value_factoryE10get_pluginEi(ptr noundef nonnull align 8 dereferenceable(16) %this, i32 noundef %fid) #4 comdat align 2 {
entry:
  %retval = alloca ptr, align 8
  %this.addr = alloca ptr, align 8
  %fid.addr = alloca i32, align 4
  %ref.tmp = alloca ptr, align 8
  store ptr %this, ptr %this.addr, align 8
  store i32 %fid, ptr %fid.addr, align 4
  %this1 = load ptr, ptr %this.addr, align 8
  %0 = load i32, ptr %fid.addr, align 4
  %cmp = icmp eq i32 %0, -1
  br i1 %cmp, label %if.then, label %if.end

if.then:                                          ; preds = %entry
  store ptr null, ptr %retval, align 8
  br label %return

if.end:                                           ; preds = %entry
  %m_fid2plugins = getelementptr inbounds %class.plugin_manager, ptr %this1, i32 0, i32 0
  %1 = load i32, ptr %fid.addr, align 4
  store ptr null, ptr %ref.tmp, align 8
  %call = call noundef nonnull align 8 dereferenceable(8) ptr @_ZNK6vectorIP13value_factoryLb0EjE3getEjRKS1_(ptr noundef nonnull align 8 dereferenceable(8) %m_fid2plugins, i32 noundef %1, ptr noundef nonnull align 8 dereferenceable(8) %ref.tmp)
  %2 = load ptr, ptr %call, align 8
  store ptr %2, ptr %retval, align 8
  br label %return

return:                                           ; preds = %if.end, %if.then
  %3 = load ptr, ptr %retval, align 8
  ret ptr %3
}

; Function Attrs: mustprogress nounwind uwtable
define linkonce_odr hidden noundef i32 @_ZNK9decl_info13get_family_idEv(ptr noundef nonnull align 8 dereferenceable(17) %this) #5 comdat align 2 {
entry:
  %this.addr = alloca ptr, align 8
  store ptr %this, ptr %this.addr, align 8
  %this1 = load ptr, ptr %this.addr, align 8
  %m_family_id = getelementptr inbounds %class.decl_info, ptr %this1, i32 0, i32 0
  %0 = load i32, ptr %m_family_id, align 8
  ret i32 %0
}

; Function Attrs: mustprogress uwtable
define hidden noundef ptr @_ZN11proto_model11get_factoryEi(ptr noundef nonnull align 8 dereferenceable(177) %this, i32 noundef %fid) #4 align 2 {
entry:
  %this.addr = alloca ptr, align 8
  %fid.addr = alloca i32, align 4
  store ptr %this, ptr %this.addr, align 8
  store i32 %fid, ptr %fid.addr, align 4
  %this1 = load ptr, ptr %this.addr, align 8
  %m_factories = getelementptr inbounds %class.proto_model, ptr %this1, i32 0, i32 1
  %0 = load i32, ptr %fid.addr, align 4
  %call = call noundef ptr @_ZNK14plugin_managerI13value_factoryE10get_pluginEi(ptr noundef nonnull align 8 dereferenceable(16) %m_factories, i32 noundef %0)
  ret ptr %call
}

; Function Attrs: mustprogress uwtable
define linkonce_odr hidden noundef i32 @_ZNK4decl13get_family_idEv(ptr noundef nonnull align 8 dereferenceable(32) %this) #4 comdat align 2 {
entry:
  %this.addr = alloca ptr, align 8
  store ptr %this, ptr %this.addr, align 8
  %this1 = load ptr, ptr %this.addr, align 8
  %m_info = getelementptr inbounds %class.decl, ptr %this1, i32 0, i32 2
  %0 = load ptr, ptr %m_info, align 8
  %cmp = icmp eq ptr %0, null
  br i1 %cmp, label %cond.true, label %cond.false

cond.true:                                        ; preds = %entry
  br label %cond.end

cond.false:                                       ; preds = %entry
  %m_info2 = getelementptr inbounds %class.decl, ptr %this1, i32 0, i32 2
  %1 = load ptr, ptr %m_info2, align 8
  %call = call noundef i32 @_ZNK9decl_info13get_family_idEv(ptr noundef nonnull align 8 dereferenceable(17) %1)
  br label %cond.end

cond.end:                                         ; preds = %cond.false, %cond.true
  %cond = phi i32 [ -1, %cond.true ], [ %call, %cond.false ]
  ret i32 %cond
}

; Function Attrs: mustprogress uwtable
define linkonce_odr hidden noundef zeroext i1 @_ZNK11ast_manager11is_uninterpEPK4sort(ptr noundef nonnull align 8 dereferenceable(976) %this, ptr noundef %s) #4 comdat align 2 {
entry:
  %this.addr = alloca ptr, align 8
  %s.addr = alloca ptr, align 8
  store ptr %this, ptr %this.addr, align 8
  store ptr %s, ptr %s.addr, align 8
  %0 = load ptr, ptr %s.addr, align 8
  %call = call noundef i32 @_ZNK4decl13get_family_idEv(ptr noundef nonnull align 8 dereferenceable(32) %0)
  %cmp = icmp eq i32 %call, -1
  br i1 %cmp, label %lor.end, label %lor.rhs

lor.rhs:                                          ; preds = %entry
  %1 = load ptr, ptr %s.addr, align 8
  %call2 = call noundef i32 @_ZNK4decl13get_family_idEv(ptr noundef nonnull align 8 dereferenceable(32) %1)
  %cmp3 = icmp eq i32 %call2, 4
  br label %lor.end

lor.end:                                          ; preds = %lor.rhs, %entry
  %2 = phi i1 [ true, %entry ], [ %cmp3, %lor.rhs ]
  ret i1 %2
}

; Function Attrs: mustprogress uwtable
define hidden noundef zeroext i1 @_ZN11proto_model15get_some_valuesEP4sortR7obj_refI4expr11ast_managerES6_(ptr noundef nonnull align 8 dereferenceable(177) %this, ptr noundef %s, ptr noundef nonnull align 8 dereferenceable(16) %v1, ptr noundef nonnull align 8 dereferenceable(16) %v2) unnamed_addr #4 align 2 {
entry:
  %retval = alloca i1, align 1
  %this.addr = alloca ptr, align 8
  %s.addr = alloca ptr, align 8
  %v1.addr = alloca ptr, align 8
  %v2.addr = alloca ptr, align 8
  %f = alloca ptr, align 8
  store ptr %this, ptr %this.addr, align 8
  store ptr %s, ptr %s.addr, align 8
  store ptr %v1, ptr %v1.addr, align 8
  store ptr %v2, ptr %v2.addr, align 8
  %this1 = load ptr, ptr %this.addr, align 8
  %m = getelementptr inbounds %class.model_core, ptr %this1, i32 0, i32 1
  %0 = load ptr, ptr %m, align 8
  %1 = load ptr, ptr %s.addr, align 8
  %call = call noundef zeroext i1 @_ZNK11ast_manager11is_uninterpEPK4sort(ptr noundef nonnull align 8 dereferenceable(976) %0, ptr noundef %1)
  br i1 %call, label %if.then, label %if.else

if.then:                                          ; preds = %entry
  %m_user_sort_factory = getelementptr inbounds %class.proto_model, ptr %this1, i32 0, i32 2
  %2 = load ptr, ptr %m_user_sort_factory, align 8
  %3 = load ptr, ptr %s.addr, align 8
  %4 = load ptr, ptr %v1.addr, align 8
  %5 = load ptr, ptr %v2.addr, align 8
  %vtable = load ptr, ptr %2, align 8
  %vfn = getelementptr inbounds ptr, ptr %vtable, i64 3
  %6 = load ptr, ptr %vfn, align 8
  %call2 = call noundef zeroext i1 %6(ptr noundef nonnull align 8 dereferenceable(136) %2, ptr noundef %3, ptr noundef nonnull align 8 dereferenceable(16) %4, ptr noundef nonnull align 8 dereferenceable(16) %5)
  store i1 %call2, ptr %retval, align 1
  br label %return

if.else:                                          ; preds = %entry
  %7 = load ptr, ptr %s.addr, align 8
  %call3 = call noundef i32 @_ZNK4decl13get_family_idEv(ptr noundef nonnull align 8 dereferenceable(32) %7)
  %call4 = call noundef ptr @_ZN11proto_model11get_factoryEi(ptr noundef nonnull align 8 dereferenceable(177) %this1, i32 noundef %call3)
  store ptr %call4, ptr %f, align 8
  %8 = load ptr, ptr %f, align 8
  %tobool = icmp ne ptr %8, null
  br i1 %tobool, label %if.then5, label %if.else9

if.then5:                                         ; preds = %if.else
  %9 = load ptr, ptr %f, align 8
  %10 = load ptr, ptr %s.addr, align 8
  %11 = load ptr, ptr %v1.addr, align 8
  %12 = load ptr, ptr %v2.addr, align 8
  %vtable6 = load ptr, ptr %9, align 8
  %vfn7 = getelementptr inbounds ptr, ptr %vtable6, i64 3
  %13 = load ptr, ptr %vfn7, align 8
  %call8 = call noundef zeroext i1 %13(ptr noundef nonnull align 8 dereferenceable(20) %9, ptr noundef %10, ptr noundef nonnull align 8 dereferenceable(16) %11, ptr noundef nonnull align 8 dereferenceable(16) %12)
  store i1 %call8, ptr %retval, align 1
  br label %return

if.else9:                                         ; preds = %if.else
  store i1 false, ptr %retval, align 1
  br label %return

return:                                           ; preds = %if.else9, %if.then5, %if.then
  %14 = load i1, ptr %retval, align 1
  ret i1 %14
}